; Function Attrs: mustprogress uwtable
define hidden void @_ZN1q14display_jointsERSojPKPN3euf5enodeE(ptr noundef nonnull align 8 dereferenceable(8) %out, i32 noundef %num_joints, ptr nocapture noundef readonly %joints) local_unnamed_addr #4 {
entry:
  %cmp13.not = icmp eq i32 %num_joints, 0
  br i1 %cmp13.not, label %for.end, label %for.body.preheader

for.body.preheader:                               ; preds = %entry
  %wide.trip.count = zext i32 %num_joints to i64
  br label %for.body

for.body:                                         ; preds = %for.body.preheader, %for.inc
  %indvars.iv = phi i64 [ 0, %for.body.preheader ], [ %indvars.iv.next, %for.inc ]
  %cmp1.not = icmp eq i64 %indvars.iv, 0
  br i1 %cmp1.not, label %if.end, label %if.then

if.then:                                          ; preds = %for.body
  %call = tail call noundef nonnull align 8 dereferenceable(8) ptr @_ZStlsISt11char_traitsIcEERSt13basic_ostreamIcT_ES5_PKc(ptr noundef nonnull align 8 dereferenceable(8) %out, ptr noundef nonnull @.str.3)
  br label %if.end

if.end:                                           ; preds = %if.then, %for.body
  %arrayidx = getelementptr inbounds ptr, ptr %joints, i64 %indvars.iv
  %0 = load ptr, ptr %arrayidx, align 8
  %1 = ptrtoint ptr %0 to i64
  %and = and i64 %1, 7
  switch i64 %and, label %for.inc [
    i64 0, label %sw.bb
    i64 1, label %sw.bb3
    i64 2, label %sw.bb8
    i64 3, label %sw.bb10
  ]

sw.bb:                                            ; preds = %if.end
  %call2 = tail call noundef nonnull align 8 dereferenceable(8) ptr @_ZStlsISt11char_traitsIcEERSt13basic_ostreamIcT_ES5_PKc(ptr noundef nonnull align 8 dereferenceable(8) %out, ptr noundef nonnull @.str.9)
  br label %for.inc

sw.bb3:                                           ; preds = %if.end
  %call4 = tail call noundef nonnull align 8 dereferenceable(8) ptr @_ZStlsISt11char_traitsIcEERSt13basic_ostreamIcT_ES5_PKc(ptr noundef nonnull align 8 dereferenceable(8) %out, ptr noundef nonnull @.str.10)
  %and5 = and i64 %1, -8
  %2 = inttoptr i64 %and5 to ptr
  %3 = load ptr, ptr %2, align 8
  %4 = load i32, ptr %3, align 4
  %call7 = tail call noundef nonnull align 8 dereferenceable(8) ptr @_ZNSolsEj(ptr noundef nonnull align 8 dereferenceable(8) %call4, i32 noundef %4)
  br label %for.inc

sw.bb8:                                           ; preds = %if.end
  %shr = lshr i64 %1, 3
  %conv = trunc i64 %shr to i32
  %call9 = tail call noundef nonnull align 8 dereferenceable(8) ptr @_ZNSolsEi(ptr noundef nonnull align 8 dereferenceable(8) %out, i32 noundef %conv)
  br label %for.inc

sw.bb10:                                          ; preds = %if.end
  %call11 = tail call noundef nonnull align 8 dereferenceable(8) ptr @_ZStlsISt11char_traitsIcEERSt13basic_ostreamIcT_ES5_PKc(ptr noundef nonnull align 8 dereferenceable(8) %out, ptr noundef nonnull @.str.11)
  %and12 = and i64 %1, -8
  %5 = inttoptr i64 %and12 to ptr
  %6 = load ptr, ptr %5, align 8
  %m_name.i = getelementptr inbounds i8, ptr %6, i64 16
  %agg.tmp.sroa.0.0.copyload = load ptr, ptr %m_name.i, align 8
  %7 = ptrtoint ptr %agg.tmp.sroa.0.0.copyload to i64
  %and.i = and i64 %7, 7
  %cmp.i = icmp eq i64 %and.i, 0
  br i1 %cmp.i, label %if.then.i, label %if.else5.i

if.then.i:                                        ; preds = %sw.bb10
  %tobool.not.i = icmp eq ptr %agg.tmp.sroa.0.0.copyload, null
  br i1 %tobool.not.i, label %if.else.i, label %if.then2.i

if.then2.i:                                       ; preds = %if.then.i
  %call.i = tail call noundef nonnull align 8 dereferenceable(8) ptr @_ZStlsISt11char_traitsIcEERSt13basic_ostreamIcT_ES5_PKc(ptr noundef nonnull align 8 dereferenceable(8) %call11, ptr noundef nonnull %agg.tmp.sroa.0.0.copyload)
  br label %_ZlsRSo6symbol.exit

if.else.i:                                        ; preds = %if.then.i
  %call4.i = tail call noundef nonnull align 8 dereferenceable(8) ptr @_ZStlsISt11char_traitsIcEERSt13basic_ostreamIcT_ES5_PKc(ptr noundef nonnull align 8 dereferenceable(8) %call11, ptr noundef nonnull @.str.36)
  br label %_ZlsRSo6symbol.exit

if.else5.i:                                       ; preds = %sw.bb10
  %call6.i = tail call noundef nonnull align 8 dereferenceable(8) ptr @_ZStlsISt11char_traitsIcEERSt13basic_ostreamIcT_ES5_PKc(ptr noundef nonnull align 8 dereferenceable(8) %call11, ptr noundef nonnull @.str.37)
  %shr.i = lshr i64 %7, 3
  %conv.i = trunc i64 %shr.i to i32
  %call8.i = tail call noundef nonnull align 8 dereferenceable(8) ptr @_ZNSolsEi(ptr noundef nonnull align 8 dereferenceable(8) %call6.i, i32 noundef %conv.i)
  br label %_ZlsRSo6symbol.exit

_ZlsRSo6symbol.exit:                              ; preds = %if.then2.i, %if.else.i, %if.else5.i
  %call15 = tail call noundef nonnull align 8 dereferenceable(8) ptr @_ZStlsISt11char_traitsIcEERSt13basic_ostreamIcT_ES5_PKc(ptr noundef nonnull align 8 dereferenceable(8) %call11, ptr noundef nonnull @.str.3)
  %m_arg_pos = getelementptr inbounds i8, ptr %5, i64 8
  %8 = load i32, ptr %m_arg_pos, align 8
  %call17 = tail call noundef nonnull align 8 dereferenceable(8) ptr @_ZNSolsEj(ptr noundef nonnull align 8 dereferenceable(8) %call15, i32 noundef %8)
  %call18 = tail call noundef nonnull align 8 dereferenceable(8) ptr @_ZStlsISt11char_traitsIcEERSt13basic_ostreamIcT_ES5_PKc(ptr noundef nonnull align 8 dereferenceable(8) %call17, ptr noundef nonnull @.str.3)
  %m_reg = getelementptr inbounds i8, ptr %5, i64 12
  %9 = load i32, ptr %m_reg, align 4
  %call20 = tail call noundef nonnull align 8 dereferenceable(8) ptr @_ZNSolsEj(ptr noundef nonnull align 8 dereferenceable(8) %call18, i32 noundef %9)
  %call21 = tail call noundef nonnull align 8 dereferenceable(8) ptr @_ZStlsISt11char_traitsIcEERSt13basic_ostreamIcT_ES5_PKc(ptr noundef nonnull align 8 dereferenceable(8) %call20, ptr noundef nonnull @.str.4)
  br label %for.inc

for.inc:                                          ; preds = %if.end, %sw.bb, %sw.bb3, %sw.bb8, %_ZlsRSo6symbol.exit
  %indvars.iv.next = add nuw nsw i64 %indvars.iv, 1
  %exitcond.not = icmp eq i64 %indvars.iv.next, %wide.trip.count
  br i1 %exitcond.not, label %for.end, label %for.body, !llvm.loop !9

for.end:                                          ; preds = %for.inc, %entry
  ret void
}